(lp0
(S'CH3OHvt=0'
p1
S'SO2v2=1'
p2
S'OS18O'
p3
S'OS17O'
p4
S'HC15Nv=0'
p5
S'H13CNv2=1'
p6
S'H13CNv=0'
p7
S'H2C18O'
p8
tp9
a(S'SO2v=0'
p10
S'33SO2'
p11
S'34SO2v=0'
p12
g2
g3
g5
g6
g7
S'H213CS'
p13
S'H2C34S'
p14
g8
S'H213CO'
p15
tp16
a(g1
g11
g12
g3
g4
g5
g7
g8
tp17
a(g11
g2
g3
g5
g6
g8
g15
tp18
a(g10
g11
g12
g15
tp19
a(g1
g2
g3
g4
g6
g14
g8
tp20
a(g1
g10
g11
g12
g4
g5
g6
tp21
a(g1
g10
g3
g13
g14
g8
g15
tp22
a(g11
g12
g2
g3
g7
g14
tp23
a(g1
g10
g11
g12
g5
g8
tp24
a(g1
g12
g2
g4
g5
g7
g13
g15
tp25
a(g11
g12
g2
g6
g7
g13
g8
tp26
a(g1
g10
g6
g14
g15
tp27
a(g1
g11
g4
g5
g7
g8
g15
tp28
a(g1
g10
g12
g2
g3
g6
g7
g13
g14
tp29
a(g1
g10
g11
g4
g5
g7
g13
g14
g15
tp30
a(g10
g12
g2
g5
g6
g7
g13
g14
g15
tp31
a(g1
g10
g2
g5
g6
g14
tp32
a(g2
g3
g13
tp33
a(g1
g10
g11
g12
g4
g5
g6
g7
g14
tp34
a(g10
g3
g4
g6
g7
g8
g15
tp35
a(g10
g7
g14
tp36
a(g1
g2
g5
g13
g14
g15
tp37
a(g11
g12
g3
g6
g14
g8
g15
tp38
a(g10
g12
g2
g6
g7
g14
g15
tp39
a.