(lp0
(S'SO2v=0'
p1
S'34SO2v=0'
p2
S'SO2v2=1'
p3
S'OS18O'
p4
S'OS17O'
p5
S'HC15Nv=0'
p6
S'H13CNv2=1'
p7
S'H213CS'
p8
S'H2C34S'
p9
tp10
a(g1
S'33SO2'
p11
g3
g6
tp12
a(g1
g11
g3
g7
g9
S'H2C18O'
p13
S'H213CO'
p14
tp15
a(g2
g4
g5
g6
g7
S'H13CNv=0'
p16
g13
g14
tp17
a(S'CH3OHvt=0'
p18
g1
g11
g6
g16
g9
g13
g14
tp19
a(g18
g1
g2
g3
g4
g5
g6
g7
g16
g8
g9
g14
tp20
a(g18
g11
g4
g5
g7
g16
g8
g9
g13
g14
tp21
a(g5
g6
g7
g16
g8
g9
g13
tp22
a(g1
g11
g2
g4
g6
g16
g13
g14
tp23
a(g1
g11
g8
tp24
a(g18
g1
g11
g3
g6
g16
g9
tp25
a(g18
g2
g4
g6
g7
g16
tp26
a(g18
g1
g2
g6
g7
g13
tp27
a(g18
g1
g11
g2
g3
g5
g6
g16
g8
g9
g13
tp28
a(g3
g4
g5
g6
tp29
a(g18
g11
g3
g7
g8
g9
g13
g14
tp30
a(g1
g2
g4
g7
g16
g8
g14
tp31
a(g18
g2
g3
g5
g7
g9
tp32
a(g18
g2
g3
g4
g16
g13
tp33
a(g18
g1
g11
g3
g5
g7
g16
g14
tp34
a(g6
g13
g14
tp35
a(g18
g1
g2
g4
g5
g9
g13
tp36
a(g18
g1
g11
g4
g6
g7
g14
tp37
a(g11
g2
g3
g5
g6
g8
g13
tp38
a(g18
g1
g11
g2
g5
g6
g16
g9
g14
tp39
a.